; Function Attrs: mustprogress uwtable
define dso_local void @_ZN22btBvhTriangleMeshShapeC2EP23btStridingMeshInterfacebRK9btVector3S4_b(ptr noundef nonnull align 8 dereferenceable(109) %this, ptr noundef %meshInterface, i1 noundef zeroext %useQuantizedAabbCompression, ptr noundef nonnull align 4 dereferenceable(16) %bvhAabbMin, ptr noundef nonnull align 4 dereferenceable(16) %bvhAabbMax, i1 noundef zeroext %buildBvh) unnamed_addr #0 align 2 personality ptr @__gxx_personality_v0 {
entry:
  %frombool = zext i1 %useQuantizedAabbCompression to i8
  tail call void @_ZN19btTriangleMeshShapeC2EP23btStridingMeshInterface(ptr noundef nonnull align 8 dereferenceable(80) %this, ptr noundef %meshInterface)
  store ptr getelementptr inbounds ({ [23 x ptr] }, ptr @_ZTV22btBvhTriangleMeshShape, i64 0, i32 0, i64 2), ptr %this, align 8
  %m_bvh = getelementptr inbounds i8, ptr %this, i64 80
  %m_useQuantizedAabbCompression = getelementptr inbounds i8, ptr %this, i64 96
  tail call void @llvm.memset.p0.i64(ptr noundef nonnull align 8 dereferenceable(16) %m_bvh, i8 0, i64 16, i1 false)
  store i8 %frombool, ptr %m_useQuantizedAabbCompression, align 8
  %m_ownsBvh = getelementptr inbounds i8, ptr %this, i64 97
  store i8 0, ptr %m_ownsBvh, align 1
  %m_shapeType = getelementptr inbounds i8, ptr %this, i64 8
  store i32 21, ptr %m_shapeType, align 8
  br i1 %buildBvh, label %if.then, label %if.end

if.then:                                          ; preds = %entry
  %call = invoke noundef ptr @_Z22btAlignedAllocInternalmi(i64 noundef 248, i32 noundef 16)
          to label %invoke.cont unwind label %lpad

invoke.cont:                                      ; preds = %if.then
  invoke void @_ZN14btOptimizedBvhC1Ev(ptr noundef nonnull align 8 dereferenceable(244) %call)
          to label %invoke.cont8 unwind label %lpad7

invoke.cont8:                                     ; preds = %invoke.cont
  store ptr %call, ptr %m_bvh, align 8
  %0 = load i8, ptr %m_useQuantizedAabbCompression, align 8
  %1 = and i8 %0, 1
  %tobool12 = icmp ne i8 %1, 0
  invoke void @_ZN14btOptimizedBvh5buildEP23btStridingMeshInterfacebRK9btVector3S4_(ptr noundef nonnull align 8 dereferenceable(244) %call, ptr noundef %meshInterface, i1 noundef zeroext %tobool12, ptr noundef nonnull align 4 dereferenceable(16) %bvhAabbMin, ptr noundef nonnull align 4 dereferenceable(16) %bvhAabbMax)
          to label %invoke.cont13 unwind label %lpad

invoke.cont13:                                    ; preds = %invoke.cont8
  store i8 1, ptr %m_ownsBvh, align 1
  br label %if.end

lpad:                                             ; preds = %invoke.cont8, %if.then
  %2 = landingpad { ptr, i32 }
          cleanup
  br label %ehcleanup

lpad7:                                            ; preds = %invoke.cont
  %3 = landingpad { ptr, i32 }
          cleanup
  br label %ehcleanup

if.end:                                           ; preds = %invoke.cont13, %entry
  ret void

ehcleanup:                                        ; preds = %lpad7, %lpad
  %.pn = phi { ptr, i32 } [ %2, %lpad ], [ %3, %lpad7 ]
  tail call void @_ZN19btTriangleMeshShapeD2Ev(ptr noundef nonnull align 8 dereferenceable(80) %this) #10
  resume { ptr, i32 } %.pn
}